target datalayout = "e-m:e-p270:32:32-p271:32:32-p272:64:64-i64:64-i128:128-f80:128-n8:16:32:64-S128"
target triple = "x86_64-pc-linux-gnu"

%struct.CVodeMemRec = type { double, ptr, ptr, i32, i32, i32, double, double, ptr, i32, ptr, ptr, i32, ptr, i32, i32, double, double, ptr, i32, i32, i32, ptr, ptr, ptr, i32, i32, ptr, ptr, ptr, i32, double, i32, i32, double, ptr, ptr, i32, ptr, ptr, i32, i32, i32, double, ptr, ptr, [13 x ptr], ptr, ptr, ptr, ptr, ptr, [13 x ptr], ptr, ptr, ptr, ptr, [13 x ptr], ptr, ptr, ptr, ptr, ptr, i32, [13 x ptr], ptr, ptr, ptr, ptr, ptr, i32, double, i32, i32, i32, i32, i32, double, double, double, double, double, double, double, double, [14 x double], [6 x double], [13 x double], double, double, double, double, double, double, double, double, double, double, double, i32, ptr, i32, i64, i32, i32, i32, i32, i32, double, double, double, i64, i64, i64, i64, i64, i64, i64, i64, i64, ptr, i64, i64, ptr, i64, i64, i64, i64, i64, i64, i32, i64, i64, i64, i64, i64, i64, double, double, double, ptr, ptr, ptr, ptr, ptr, i32, i32, i64, double, double, double, i32, double, i32, i32, i32, i32, i32, i32, i32, i32, i32, i32, i32, i32, i32, i32, i32, i32, ptr, ptr, ptr, i32, [6 x [4 x double]], i32, i64, ptr, i32, ptr, ptr, double, double, double, ptr, ptr, ptr, double, double, i32, i32, i64, ptr, i32, i32, ptr, i32 }
%struct.CVadjMemRec = type { double, double, i32, i32, double, ptr, i32, ptr, i32, ptr, i32, ptr, i64, ptr, i64, i32, ptr, ptr, ptr, ptr, i32, i32, i32, i32, [13 x ptr], [13 x ptr], [13 x double], ptr, ptr, i64 }
%struct.CVodeBMemRec = type { i32, double, ptr, i32, i32, ptr, ptr, ptr, ptr, ptr, ptr, ptr, ptr, ptr, double, ptr, ptr }
%struct.CVDlsMemRecB = type { i32, ptr, ptr, ptr, ptr }

@.str.5 = private unnamed_addr constant [7 x i8] c"CVSDLS\00", align 1
@.str.26 = private unnamed_addr constant [25 x i8] c"Bad t for interpolation.\00", align 1
@.str.27 = private unnamed_addr constant [23 x i8] c"cvDlsDenseJacBSWrapper\00", align 1

; Function Attrs: nounwind uwtable
define internal i32 @cvDlsDenseJacBSWrapper(i64 noundef %0, double noundef %1, ptr noundef %2, ptr noundef %3, ptr noundef %4, ptr noundef %5, ptr noundef %6, ptr noundef %7, ptr noundef %8) #0 {
  %10 = alloca i32, align 4
  %11 = alloca i64, align 8
  %12 = alloca double, align 8
  %13 = alloca ptr, align 8
  %14 = alloca ptr, align 8
  %15 = alloca ptr, align 8
  %16 = alloca ptr, align 8
  %17 = alloca ptr, align 8
  %18 = alloca ptr, align 8
  %19 = alloca ptr, align 8
  %20 = alloca ptr, align 8
  %21 = alloca ptr, align 8
  %22 = alloca ptr, align 8
  %23 = alloca ptr, align 8
  %24 = alloca i32, align 4
  %25 = alloca i32, align 4
  %26 = alloca i32, align 4
  store i64 %0, ptr %11, align 8, !tbaa !31
  store double %1, ptr %12, align 8, !tbaa !40
  store ptr %2, ptr %13, align 8, !tbaa !41
  store ptr %3, ptr %14, align 8, !tbaa !41
  store ptr %4, ptr %15, align 8, !tbaa !42
  store ptr %5, ptr %16, align 8, !tbaa !3
  store ptr %6, ptr %17, align 8, !tbaa !41
  store ptr %7, ptr %18, align 8, !tbaa !41
  store ptr %8, ptr %19, align 8, !tbaa !41
  call void @llvm.lifetime.start.p0(i64 8, ptr %20) #5
  call void @llvm.lifetime.start.p0(i64 8, ptr %21) #5
  call void @llvm.lifetime.start.p0(i64 8, ptr %22) #5
  call void @llvm.lifetime.start.p0(i64 8, ptr %23) #5
  call void @llvm.lifetime.start.p0(i64 4, ptr %24) #5
  call void @llvm.lifetime.start.p0(i64 4, ptr %25) #5
  %27 = load ptr, ptr %16, align 8, !tbaa !3
  store ptr %27, ptr %20, align 8, !tbaa !7
  %28 = load ptr, ptr %20, align 8, !tbaa !7
  %29 = getelementptr inbounds nuw %struct.CVodeMemRec, ptr %28, i32 0, i32 194
  %30 = load ptr, ptr %29, align 8, !tbaa !62
  store ptr %30, ptr %21, align 8, !tbaa !63
  %31 = load ptr, ptr %21, align 8, !tbaa !63
  %32 = getelementptr inbounds nuw %struct.CVadjMemRec, ptr %31, i32 0, i32 7
  %33 = load ptr, ptr %32, align 8, !tbaa !81
  store ptr %33, ptr %22, align 8, !tbaa !70
  %34 = load ptr, ptr %22, align 8, !tbaa !70
  %35 = getelementptr inbounds nuw %struct.CVodeBMemRec, ptr %34, i32 0, i32 10
  %36 = load ptr, ptr %35, align 8, !tbaa !76
  store ptr %36, ptr %23, align 8, !tbaa !77
  %37 = load ptr, ptr %21, align 8, !tbaa !63
  %38 = getelementptr inbounds nuw %struct.CVadjMemRec, ptr %37, i32 0, i32 23
  %39 = load i32, ptr %38, align 4, !tbaa !87
  %40 = icmp ne i32 %39, 0
  br i1 %40, label %41, label %54

41:                                               ; preds = %9
  %42 = load ptr, ptr %21, align 8, !tbaa !63
  %43 = getelementptr inbounds nuw %struct.CVadjMemRec, ptr %42, i32 0, i32 19
  %44 = load ptr, ptr %43, align 8, !tbaa !82
  %45 = load ptr, ptr %20, align 8, !tbaa !7
  %46 = load double, ptr %12, align 8, !tbaa !40
  %47 = load ptr, ptr %21, align 8, !tbaa !63
  %48 = getelementptr inbounds nuw %struct.CVadjMemRec, ptr %47, i32 0, i32 27
  %49 = load ptr, ptr %48, align 8, !tbaa !83
  %50 = load ptr, ptr %21, align 8, !tbaa !63
  %51 = getelementptr inbounds nuw %struct.CVadjMemRec, ptr %50, i32 0, i32 28
  %52 = load ptr, ptr %51, align 8, !tbaa !88
  %53 = call i32 %44(ptr noundef %45, double noundef %46, ptr noundef %49, ptr noundef %52)
  store i32 %53, ptr %25, align 4, !tbaa !43
  br label %64

54:                                               ; preds = %9
  %55 = load ptr, ptr %21, align 8, !tbaa !63
  %56 = getelementptr inbounds nuw %struct.CVadjMemRec, ptr %55, i32 0, i32 19
  %57 = load ptr, ptr %56, align 8, !tbaa !82
  %58 = load ptr, ptr %20, align 8, !tbaa !7
  %59 = load double, ptr %12, align 8, !tbaa !40
  %60 = load ptr, ptr %21, align 8, !tbaa !63
  %61 = getelementptr inbounds nuw %struct.CVadjMemRec, ptr %60, i32 0, i32 27
  %62 = load ptr, ptr %61, align 8, !tbaa !83
  %63 = call i32 %57(ptr noundef %58, double noundef %59, ptr noundef %62, ptr noundef null)
  store i32 %63, ptr %25, align 4, !tbaa !43
  br label %64

64:                                               ; preds = %54, %41
  %65 = load i32, ptr %25, align 4, !tbaa !43
  %66 = icmp ne i32 %65, 0
  br i1 %66, label %67, label %69

67:                                               ; preds = %64
  %68 = load ptr, ptr %20, align 8, !tbaa !7
  call void (ptr, i32, ptr, ptr, ptr, ...) @cvProcessError(ptr noundef %68, i32 noundef -1, ptr noundef @.str.5, ptr noundef @.str.27, ptr noundef @.str.26)
  store i32 -1, ptr %10, align 4
  store i32 1, ptr %26, align 4
  br label %92

69:                                               ; preds = %64
  %70 = load ptr, ptr %23, align 8, !tbaa !77
  %71 = getelementptr inbounds nuw %struct.CVDlsMemRecB, ptr %70, i32 0, i32 2
  %72 = load ptr, ptr %71, align 8, !tbaa !86
  %73 = load i64, ptr %11, align 8, !tbaa !31
  %74 = load double, ptr %12, align 8, !tbaa !40
  %75 = load ptr, ptr %21, align 8, !tbaa !63
  %76 = getelementptr inbounds nuw %struct.CVadjMemRec, ptr %75, i32 0, i32 27
  %77 = load ptr, ptr %76, align 8, !tbaa !83
  %78 = load ptr, ptr %21, align 8, !tbaa !63
  %79 = getelementptr inbounds nuw %struct.CVadjMemRec, ptr %78, i32 0, i32 28
  %80 = load ptr, ptr %79, align 8, !tbaa !88
  %81 = load ptr, ptr %13, align 8, !tbaa !41
  %82 = load ptr, ptr %14, align 8, !tbaa !41
  %83 = load ptr, ptr %15, align 8, !tbaa !42
  %84 = load ptr, ptr %22, align 8, !tbaa !70
  %85 = getelementptr inbounds nuw %struct.CVodeBMemRec, ptr %84, i32 0, i32 9
  %86 = load ptr, ptr %85, align 8, !tbaa !84
  %87 = load ptr, ptr %17, align 8, !tbaa !41
  %88 = load ptr, ptr %18, align 8, !tbaa !41
  %89 = load ptr, ptr %19, align 8, !tbaa !41
  %90 = call i32 %72(i64 noundef %73, double noundef %74, ptr noundef %77, ptr noundef %80, ptr noundef %81, ptr noundef %82, ptr noundef %83, ptr noundef %86, ptr noundef %87, ptr noundef %88, ptr noundef %89)
  store i32 %90, ptr %24, align 4, !tbaa !43
  %91 = load i32, ptr %24, align 4, !tbaa !43
  store i32 %91, ptr %10, align 4
  store i32 1, ptr %26, align 4
  br label %92

92:                                               ; preds = %69, %67
  call void @llvm.lifetime.end.p0(i64 4, ptr %25) #5
  call void @llvm.lifetime.end.p0(i64 4, ptr %24) #5
  call void @llvm.lifetime.end.p0(i64 8, ptr %23) #5
  call void @llvm.lifetime.end.p0(i64 8, ptr %22) #5
  call void @llvm.lifetime.end.p0(i64 8, ptr %21) #5
  call void @llvm.lifetime.end.p0(i64 8, ptr %20) #5
  %93 = load i32, ptr %10, align 4
  ret i32 %93
}