; Function Attrs: nounwind uwtable
define internal i32 @cvDlsDenseJacBSWrapper(i64 noundef %0, double noundef %1, ptr noundef %2, ptr noundef %3, ptr noundef %4, ptr noundef %5, ptr noundef %6, ptr noundef %7, ptr noundef %8) #0 {
  %10 = getelementptr inbounds nuw i8, ptr %5, i64 2192
  %11 = load ptr, ptr %10, align 8, !tbaa !51
  %12 = getelementptr inbounds nuw i8, ptr %11, i64 48
  %13 = load ptr, ptr %12, align 8, !tbaa !66
  %14 = getelementptr inbounds nuw i8, ptr %13, i64 72
  %15 = load ptr, ptr %14, align 8, !tbaa !63
  %16 = getelementptr inbounds nuw i8, ptr %11, i64 164
  %17 = load i32, ptr %16, align 4, !tbaa !71
  %.not = icmp eq i32 %17, 0
  %18 = getelementptr inbounds nuw i8, ptr %11, i64 144
  %19 = load ptr, ptr %18, align 8, !tbaa !67
  %20 = getelementptr inbounds nuw i8, ptr %11, i64 480
  %21 = load ptr, ptr %20, align 8, !tbaa !68
  br i1 %.not, label %25, label %22

22:                                               ; preds = %9
  %23 = getelementptr inbounds nuw i8, ptr %11, i64 488
  %24 = load ptr, ptr %23, align 8, !tbaa !72
  br label %25

25:                                               ; preds = %9, %22
  %.sink = phi ptr [ %24, %22 ], [ null, %9 ]
  %26 = tail call i32 %19(ptr noundef nonnull %5, double noundef %1, ptr noundef %21, ptr noundef %.sink) #6
  %.not30 = icmp eq i32 %26, 0
  br i1 %.not30, label %28, label %27

27:                                               ; preds = %25
  tail call void (ptr, i32, ptr, ptr, ptr, ...) @cvProcessError(ptr noundef nonnull %5, i32 noundef -1, ptr noundef nonnull @.str.5, ptr noundef nonnull @.str.27, ptr noundef nonnull @.str.26) #6
  br label %38

28:                                               ; preds = %25
  %29 = getelementptr inbounds nuw i8, ptr %15, i64 16
  %30 = load ptr, ptr %29, align 8, !tbaa !70
  %31 = getelementptr inbounds nuw i8, ptr %11, i64 480
  %32 = load ptr, ptr %31, align 8, !tbaa !68
  %33 = getelementptr inbounds nuw i8, ptr %11, i64 488
  %34 = load ptr, ptr %33, align 8, !tbaa !72
  %35 = getelementptr inbounds nuw i8, ptr %13, i64 64
  %36 = load ptr, ptr %35, align 8, !tbaa !69
  %37 = tail call i32 %30(i64 noundef %0, double noundef %1, ptr noundef %32, ptr noundef %34, ptr noundef %2, ptr noundef %3, ptr noundef %4, ptr noundef %36, ptr noundef %6, ptr noundef %7, ptr noundef %8) #6
  br label %38

38:                                               ; preds = %28, %27
  %.029 = phi i32 [ -1, %27 ], [ %37, %28 ]
  ret i32 %.029
}